; Function Attrs: mustprogress null_pointer_is_valid sspstrong uwtable
define void @_ZN23ResponseTimeDelayDialog8tapResetEPv(ptr noundef %0) #2 align 2 {
  %2 = getelementptr inbounds nuw i8, ptr %0, i64 24
  %3 = load ptr, ptr %2, align 8
  %.not = icmp eq ptr %3, null
  br i1 %.not, label %6, label %4

4:                                                ; preds = %1
  tail call void @reset_rtd_table(ptr noundef %0)
  %5 = tail call noundef ptr @_ZN18TapParameterDialog15statsTreeWidgetEv(ptr noundef nonnull align 8 dereferenceable_or_null(232) %3)
  tail call void @_ZN11QTreeWidget5clearEv(ptr noundef align 8 dereferenceable_or_null(40) %5)
  tail call void @_ZN23ResponseTimeDelayDialog11addRtdTableEPK15_rtd_stat_table(ptr noundef nonnull align 8 dereferenceable_or_null(240) %3, ptr noundef %0)
  br label %6

6:                                                ; preds = %1, %4
  ret void
}